target datalayout = "e-m:e-p270:32:32-p271:32:32-p272:64:64-i64:64-i128:128-f80:128-n8:16:32:64-S128"
target triple = "x86_64-pc-linux-gnu"

%struct.Color = type { i8, i8, i8, i8 }
%struct.Vector2 = type { float, float }

; Function Attrs: nounwind uwtable
define void @DrawSplineBezierCubic(ptr noundef %0, i32 noundef %1, float noundef %2, i32 %3) #0 {
  %5 = alloca %struct.Color, align 1
  %6 = alloca ptr, align 8
  %7 = alloca i32, align 4
  %8 = alloca float, align 4
  %9 = alloca i32, align 4
  store i32 %3, ptr %5, align 1
  store ptr %0, ptr %6, align 8
  store i32 %1, ptr %7, align 4
  store float %2, ptr %8, align 4
  %10 = load i32, ptr %7, align 4
  %11 = icmp sge i32 %10, 4
  br i1 %11, label %12, label %49

12:                                               ; preds = %4
  call void @llvm.lifetime.start.p0(i64 4, ptr %9) #8
  store i32 0, ptr %9, align 4
  br label %13

13:                                               ; preds = %45, %12
  %14 = load i32, ptr %9, align 4
  %15 = load i32, ptr %7, align 4
  %16 = sub nsw i32 %15, 3
  %17 = icmp slt i32 %14, %16
  br i1 %17, label %19, label %18

18:                                               ; preds = %13
  call void @llvm.lifetime.end.p0(i64 4, ptr %9) #8
  br label %48

19:                                               ; preds = %13
  %20 = load ptr, ptr %6, align 8
  %21 = load i32, ptr %9, align 4
  %22 = sext i32 %21 to i64
  %23 = getelementptr inbounds %struct.Vector2, ptr %20, i64 %22
  %24 = load ptr, ptr %6, align 8
  %25 = load i32, ptr %9, align 4
  %26 = add nsw i32 %25, 1
  %27 = sext i32 %26 to i64
  %28 = getelementptr inbounds %struct.Vector2, ptr %24, i64 %27
  %29 = load ptr, ptr %6, align 8
  %30 = load i32, ptr %9, align 4
  %31 = add nsw i32 %30, 2
  %32 = sext i32 %31 to i64
  %33 = getelementptr inbounds %struct.Vector2, ptr %29, i64 %32
  %34 = load ptr, ptr %6, align 8
  %35 = load i32, ptr %9, align 4
  %36 = add nsw i32 %35, 3
  %37 = sext i32 %36 to i64
  %38 = getelementptr inbounds %struct.Vector2, ptr %34, i64 %37
  %39 = load float, ptr %8, align 4
  %40 = load <2 x float>, ptr %23, align 4
  %41 = load <2 x float>, ptr %28, align 4
  %42 = load <2 x float>, ptr %33, align 4
  %43 = load <2 x float>, ptr %38, align 4
  %44 = load i32, ptr %5, align 1
  call void @DrawSplineSegmentBezierCubic(<2 x float> %40, <2 x float> %41, <2 x float> %42, <2 x float> %43, float noundef %39, i32 %44)
  br label %45

45:                                               ; preds = %19
  %46 = load i32, ptr %9, align 4
  %47 = add nsw i32 %46, 3
  store i32 %47, ptr %9, align 4
  br label %13

48:                                               ; preds = %18
  br label %49

49:                                               ; preds = %48, %4
  ret void
}