; Function Attrs: nounwind uwtable
define void @DrawSplineBezierCubic(ptr noundef readonly captures(none) %0, i32 noundef %1, float noundef %2, i32 %3) local_unnamed_addr #4 {
  %5 = icmp sgt i32 %1, 3
  br i1 %5, label %.lr.ph.preheader, label %.loopexit

.lr.ph.preheader:                                 ; preds = %4
  %6 = add nsw i32 %1, -3
  %7 = zext nneg i32 %6 to i64
  br label %.lr.ph

.lr.ph:                                           ; preds = %.lr.ph.preheader, %.lr.ph
  %indvars.iv = phi i64 [ 0, %.lr.ph.preheader ], [ %indvars.iv.next, %.lr.ph ]
  %8 = getelementptr inbounds nuw %struct.Vector2, ptr %0, i64 %indvars.iv
  %9 = getelementptr inbounds nuw i8, ptr %8, i64 8
  %10 = getelementptr inbounds nuw i8, ptr %8, i64 16
  %indvars.iv.next = add nuw nsw i64 %indvars.iv, 3
  %11 = getelementptr inbounds nuw %struct.Vector2, ptr %0, i64 %indvars.iv.next
  %12 = load <2 x float>, ptr %8, align 4
  %13 = load <2 x float>, ptr %9, align 4
  %14 = load <2 x float>, ptr %10, align 4
  %15 = load <2 x float>, ptr %11, align 4
  tail call void @DrawSplineSegmentBezierCubic(<2 x float> %12, <2 x float> %13, <2 x float> %14, <2 x float> %15, float noundef %2, i32 %3)
  %16 = icmp samesign ult i64 %indvars.iv.next, %7
  br i1 %16, label %.lr.ph, label %.loopexit

.loopexit:                                        ; preds = %.lr.ph, %4
  ret void
}